target datalayout = "e-m:e-p270:32:32-p271:32:32-p272:64:64-i64:64-i128:128-f80:128-n8:16:32:64-S128"
target triple = "x86_64-pc-linux-gnu"

%struct.json_dumper = type { ptr, ptr, i32, i32, i32, i32, [1100 x i8] }
%struct.nstime_t = type { i64, i32 }
%struct._voip_calls_tapinfo = type { ptr, ptr, ptr, ptr, i32, ptr, [1 x ptr], i32, ptr, i32, i32, i32, ptr, ptr, i32, ptr, i32, i8, i8, ptr, i32, i32, i32, i8, i32, ptr, ptr, ptr, i8, i32, i32, i32, i16, i32, i8, i32, i32, i32, i32, i32, i32, i8 }
%struct._GList = type { ptr, ptr, ptr }
%struct._address = type { i32, i32, ptr, ptr }
%struct._voip_calls_info = type { i32, i32, ptr, ptr, ptr, ptr, ptr, %struct._address, i32, i32, ptr, ptr, i16, ptr, %struct.nstime_t, ptr, %struct.nstime_t }

@dumper = internal global %struct.json_dumper zeroinitializer, align 8
@.str.20 = private unnamed_addr constant [4 x i8] c"tap\00", align 1
@.str.82 = private unnamed_addr constant [8 x i8] c"comment\00", align 1
@.str.123 = private unnamed_addr constant [3 x i8] c"%u\00", align 1
@.str.157 = private unnamed_addr constant [11 x i8] c"voip-calls\00", align 1
@.str.244 = private unnamed_addr constant [5 x i8] c"type\00", align 1
@.str.323 = private unnamed_addr constant [11 x i8] c"start_time\00", align 1
@.str.362 = private unnamed_addr constant [8 x i8] c"packets\00", align 1
@.str.371 = private unnamed_addr constant [6 x i8] c"calls\00", align 1
@.str.372 = private unnamed_addr constant [5 x i8] c"call\00", align 1
@.str.373 = private unnamed_addr constant [4 x i8] c"%hu\00", align 1
@.str.374 = private unnamed_addr constant [5 x i8] c"%.6f\00", align 1
@.str.375 = private unnamed_addr constant [10 x i8] c"stop_time\00", align 1
@.str.376 = private unnamed_addr constant [16 x i8] c"initial_speaker\00", align 1
@.str.377 = private unnamed_addr constant [5 x i8] c"from\00", align 1
@.str.378 = private unnamed_addr constant [3 x i8] c"to\00", align 1
@.str.379 = private unnamed_addr constant [9 x i8] c"protocol\00", align 1
@voip_protocol_name = external global [0 x ptr], align 8
@.str.380 = private unnamed_addr constant [6 x i8] c"state\00", align 1
@voip_call_state_name = external global [8 x ptr], align 16

; Function Attrs: null_pointer_is_valid sspstrong uwtable
define internal void @sharkd_json_array_close() #0 {
  call void @json_dumper_end_array(ptr noundef @dumper)
  ret void
}

; Function Attrs: null_pointer_is_valid sspstrong uwtable
define internal void @sharkd_json_object_close() #0 {
  call void @json_dumper_end_object(ptr noundef @dumper)
  ret void
}

; Function Attrs: null_pointer_is_valid sspstrong uwtable
define internal void @sharkd_json_array_open(ptr noundef %0) #0 {
  %2 = alloca ptr, align 8
  store ptr %0, ptr %2, align 8
  %3 = load ptr, ptr %2, align 8
  %4 = icmp ne ptr %3, null
  br i1 %4, label %5, label %7

5:                                                ; preds = %1
  %6 = load ptr, ptr %2, align 8
  call void @json_dumper_set_member_name(ptr noundef @dumper, ptr noundef %6)
  br label %7

7:                                                ; preds = %5, %1
  call void @json_dumper_begin_array(ptr noundef @dumper)
  ret void
}

; Function Attrs: null_pointer_is_valid sspstrong uwtable
define internal void @sharkd_json_value_string(ptr noundef %0, ptr noundef %1) #0 {
  %3 = alloca ptr, align 8
  %4 = alloca ptr, align 8
  store ptr %0, ptr %3, align 8
  store ptr %1, ptr %4, align 8
  %5 = load ptr, ptr %3, align 8
  %6 = icmp ne ptr %5, null
  br i1 %6, label %7, label %9

7:                                                ; preds = %2
  %8 = load ptr, ptr %3, align 8
  call void @json_dumper_set_member_name(ptr noundef @dumper, ptr noundef %8)
  br label %9

9:                                                ; preds = %7, %2
  %10 = load ptr, ptr %4, align 8
  call void @json_dumper_value_string(ptr noundef @dumper, ptr noundef %10)
  ret void
}

; Function Attrs: null_pointer_is_valid sspstrong uwtable
define internal void @sharkd_json_object_open(ptr noundef %0) #0 {
  %2 = alloca ptr, align 8
  store ptr %0, ptr %2, align 8
  %3 = load ptr, ptr %2, align 8
  %4 = icmp ne ptr %3, null
  br i1 %4, label %5, label %7

5:                                                ; preds = %1
  %6 = load ptr, ptr %2, align 8
  call void @json_dumper_set_member_name(ptr noundef @dumper, ptr noundef %6)
  br label %7

7:                                                ; preds = %5, %1
  call void @json_dumper_begin_object(ptr noundef @dumper)
  ret void
}

; Function Attrs: null_pointer_is_valid sspstrong uwtable
define internal void @sharkd_session_process_tap_voip_calls_cb(ptr noundef %0) #0 {
  %2 = alloca ptr, align 8
  %3 = alloca ptr, align 8
  %4 = alloca ptr, align 8
  %5 = alloca ptr, align 8
  %6 = alloca ptr, align 8
  store ptr %0, ptr %2, align 8
  call void @llvm.lifetime.start.p0(i64 8, ptr %3) #21
  %7 = load ptr, ptr %2, align 8
  store ptr %7, ptr %3, align 8
  call void @llvm.lifetime.start.p0(i64 8, ptr %4) #21
  call void @llvm.lifetime.start.p0(i64 8, ptr %5) #21
  %8 = load ptr, ptr %3, align 8
  %9 = getelementptr inbounds nuw %struct._voip_calls_tapinfo, ptr %8, i32 0, i32 5
  %10 = load ptr, ptr %9, align 8
  %11 = call ptr @g_queue_peek_nth_link(ptr noundef %10, i32 noundef 0)
  store ptr %11, ptr %5, align 8
  call void @sharkd_json_object_open(ptr noundef null)
  call void @sharkd_json_value_string(ptr noundef @.str.20, ptr noundef @.str.157)
  call void @sharkd_json_value_string(ptr noundef @.str.244, ptr noundef @.str.157)
  call void @sharkd_json_array_open(ptr noundef @.str.371)
  br label %12

12:                                               ; preds = %88, %1
  %13 = load ptr, ptr %5, align 8
  %14 = icmp ne ptr %13, null
  br i1 %14, label %15, label %20

15:                                               ; preds = %12
  %16 = load ptr, ptr %5, align 8
  %17 = getelementptr inbounds nuw %struct._GList, ptr %16, i32 0, i32 0
  %18 = load ptr, ptr %17, align 8
  %19 = icmp ne ptr %18, null
  br label %20

20:                                               ; preds = %15, %12
  %21 = phi i1 [ false, %12 ], [ %19, %15 ]
  br i1 %21, label %22, label %90

22:                                               ; preds = %20
  call void @llvm.lifetime.start.p0(i64 8, ptr %6) #21
  %23 = load ptr, ptr %5, align 8
  %24 = getelementptr inbounds nuw %struct._GList, ptr %23, i32 0, i32 0
  %25 = load ptr, ptr %24, align 8
  store ptr %25, ptr %6, align 8
  call void @sharkd_json_object_open(ptr noundef null)
  %26 = load ptr, ptr %6, align 8
  %27 = getelementptr inbounds nuw %struct._voip_calls_info, ptr %26, i32 0, i32 12
  %28 = load i16, ptr %27, align 8
  %29 = zext i16 %28 to i32
  call void (ptr, ptr, ...) @sharkd_json_value_anyf(ptr noundef @.str.372, ptr noundef @.str.373, i32 noundef %29)
  %30 = load ptr, ptr %6, align 8
  %31 = getelementptr inbounds nuw %struct._voip_calls_info, ptr %30, i32 0, i32 14
  %32 = call double @nstime_to_sec(ptr noundef %31)
  call void (ptr, ptr, ...) @sharkd_json_value_anyf(ptr noundef @.str.323, ptr noundef @.str.374, double noundef %32)
  %33 = load ptr, ptr %6, align 8
  %34 = getelementptr inbounds nuw %struct._voip_calls_info, ptr %33, i32 0, i32 16
  %35 = call double @nstime_to_sec(ptr noundef %34)
  call void (ptr, ptr, ...) @sharkd_json_value_anyf(ptr noundef @.str.375, ptr noundef @.str.374, double noundef %35)
  %36 = load ptr, ptr %6, align 8
  %37 = getelementptr inbounds nuw %struct._voip_calls_info, ptr %36, i32 0, i32 7
  %38 = call ptr @address_to_display(ptr noundef null, ptr noundef %37)
  store ptr %38, ptr %4, align 8
  %39 = load ptr, ptr %4, align 8
  call void @sharkd_json_value_string(ptr noundef @.str.376, ptr noundef %39)
  %40 = load ptr, ptr %4, align 8
  call void @wmem_free(ptr noundef null, ptr noundef %40)
  %41 = load ptr, ptr %6, align 8
  %42 = getelementptr inbounds nuw %struct._voip_calls_info, ptr %41, i32 0, i32 3
  %43 = load ptr, ptr %42, align 8
  call void @sharkd_json_value_string(ptr noundef @.str.377, ptr noundef %43)
  %44 = load ptr, ptr %6, align 8
  %45 = getelementptr inbounds nuw %struct._voip_calls_info, ptr %44, i32 0, i32 4
  %46 = load ptr, ptr %45, align 8
  call void @sharkd_json_value_string(ptr noundef @.str.378, ptr noundef %46)
  %47 = load ptr, ptr %6, align 8
  %48 = getelementptr inbounds nuw %struct._voip_calls_info, ptr %47, i32 0, i32 9
  %49 = load i32, ptr %48, align 4
  %50 = icmp eq i32 %49, 14
  br i1 %50, label %51, label %60

51:                                               ; preds = %22
  %52 = load ptr, ptr %6, align 8
  %53 = getelementptr inbounds nuw %struct._voip_calls_info, ptr %52, i32 0, i32 10
  %54 = load ptr, ptr %53, align 8
  %55 = icmp ne ptr %54, null
  br i1 %55, label %56, label %60

56:                                               ; preds = %51
  %57 = load ptr, ptr %6, align 8
  %58 = getelementptr inbounds nuw %struct._voip_calls_info, ptr %57, i32 0, i32 10
  %59 = load ptr, ptr %58, align 8
  br label %67

60:                                               ; preds = %51, %22
  %61 = load ptr, ptr %6, align 8
  %62 = getelementptr inbounds nuw %struct._voip_calls_info, ptr %61, i32 0, i32 9
  %63 = load i32, ptr %62, align 4
  %64 = zext i32 %63 to i64
  %65 = getelementptr [0 x ptr], ptr @voip_protocol_name, i64 0, i64 %64
  %66 = load ptr, ptr %65, align 8
  br label %67

67:                                               ; preds = %60, %56
  %68 = phi ptr [ %59, %56 ], [ %66, %60 ]
  call void @sharkd_json_value_string(ptr noundef @.str.379, ptr noundef %68)
  %69 = load ptr, ptr %6, align 8
  %70 = getelementptr inbounds nuw %struct._voip_calls_info, ptr %69, i32 0, i32 8
  %71 = load i32, ptr %70, align 8
  call void (ptr, ptr, ...) @sharkd_json_value_anyf(ptr noundef @.str.362, ptr noundef @.str.123, i32 noundef %71)
  %72 = load ptr, ptr %6, align 8
  %73 = getelementptr inbounds nuw %struct._voip_calls_info, ptr %72, i32 0, i32 0
  %74 = load i32, ptr %73, align 8
  %75 = zext i32 %74 to i64
  %76 = getelementptr [8 x ptr], ptr @voip_call_state_name, i64 0, i64 %75
  %77 = load ptr, ptr %76, align 8
  call void @sharkd_json_value_string(ptr noundef @.str.380, ptr noundef %77)
  %78 = load ptr, ptr %6, align 8
  %79 = getelementptr inbounds nuw %struct._voip_calls_info, ptr %78, i32 0, i32 11
  %80 = load ptr, ptr %79, align 8
  call void @sharkd_json_value_string(ptr noundef @.str.82, ptr noundef %80)
  call void @sharkd_json_object_close()
  %81 = load ptr, ptr %5, align 8
  %82 = icmp ne ptr %81, null
  br i1 %82, label %83, label %87

83:                                               ; preds = %67
  %84 = load ptr, ptr %5, align 8
  %85 = getelementptr inbounds nuw %struct._GList, ptr %84, i32 0, i32 1
  %86 = load ptr, ptr %85, align 8
  br label %88

87:                                               ; preds = %67
  br label %88

88:                                               ; preds = %87, %83
  %89 = phi ptr [ %86, %83 ], [ null, %87 ]
  store ptr %89, ptr %5, align 8
  call void @llvm.lifetime.end.p0(i64 8, ptr %6) #21
  br label %12, !llvm.loop !64

90:                                               ; preds = %20
  call void @sharkd_json_array_close()
  call void @sharkd_json_object_close()
  call void @llvm.lifetime.end.p0(i64 8, ptr %5) #21
  call void @llvm.lifetime.end.p0(i64 8, ptr %4) #21
  call void @llvm.lifetime.end.p0(i64 8, ptr %3) #21
  ret void
}