; Function Attrs: null_pointer_is_valid sspstrong uwtable
define internal void @sharkd_session_process_tap_voip_calls_cb(ptr noundef readonly captures(none) %0) #0 {
  %2 = getelementptr inbounds nuw i8, ptr %0, i64 40
  %3 = load ptr, ptr %2, align 8
  %4 = tail call ptr @g_queue_peek_nth_link(ptr noundef %3, i32 noundef 0)
  tail call void @json_dumper_begin_object(ptr noundef nonnull @dumper)
  tail call void @json_dumper_set_member_name(ptr noundef nonnull @dumper, ptr noundef nonnull @.str.20)
  tail call void @json_dumper_value_string(ptr noundef nonnull @dumper, ptr noundef nonnull @.str.157)
  tail call void @json_dumper_set_member_name(ptr noundef nonnull @dumper, ptr noundef nonnull @.str.244)
  tail call void @json_dumper_value_string(ptr noundef nonnull @dumper, ptr noundef nonnull @.str.157)
  tail call void @json_dumper_set_member_name(ptr noundef nonnull @dumper, ptr noundef nonnull @.str.371)
  tail call void @json_dumper_begin_array(ptr noundef nonnull @dumper)
  %.not26 = icmp eq ptr %4, null
  br i1 %.not26, label %.critedge, label %.lr.ph

.lr.ph:                                           ; preds = %1, %30
  %.027 = phi ptr [ %41, %30 ], [ %4, %1 ]
  %5 = load ptr, ptr %.027, align 8
  %.not24 = icmp eq ptr %5, null
  br i1 %.not24, label %.critedge, label %6

6:                                                ; preds = %.lr.ph
  tail call void @json_dumper_begin_object(ptr noundef nonnull @dumper)
  %7 = getelementptr inbounds nuw i8, ptr %5, i64 96
  %8 = load i16, ptr %7, align 8
  %9 = zext i16 %8 to i32
  tail call void (ptr, ptr, ...) @sharkd_json_value_anyf(ptr noundef nonnull @.str.372, ptr noundef nonnull @.str.373, i32 noundef %9)
  %10 = getelementptr inbounds nuw i8, ptr %5, i64 112
  %11 = tail call double @nstime_to_sec(ptr noundef nonnull %10)
  tail call void (ptr, ptr, ...) @sharkd_json_value_anyf(ptr noundef nonnull @.str.323, ptr noundef nonnull @.str.374, double noundef %11)
  %12 = getelementptr inbounds nuw i8, ptr %5, i64 136
  %13 = tail call double @nstime_to_sec(ptr noundef nonnull %12)
  tail call void (ptr, ptr, ...) @sharkd_json_value_anyf(ptr noundef nonnull @.str.375, ptr noundef nonnull @.str.374, double noundef %13)
  %14 = getelementptr inbounds nuw i8, ptr %5, i64 48
  %15 = tail call ptr @address_to_display(ptr noundef null, ptr noundef nonnull %14)
  tail call void @json_dumper_set_member_name(ptr noundef nonnull @dumper, ptr noundef nonnull @.str.376)
  tail call void @json_dumper_value_string(ptr noundef nonnull @dumper, ptr noundef %15)
  tail call void @wmem_free(ptr noundef null, ptr noundef %15)
  %16 = getelementptr inbounds nuw i8, ptr %5, i64 16
  %17 = load ptr, ptr %16, align 8
  tail call void @json_dumper_set_member_name(ptr noundef nonnull @dumper, ptr noundef nonnull @.str.377)
  tail call void @json_dumper_value_string(ptr noundef nonnull @dumper, ptr noundef %17)
  %18 = getelementptr inbounds nuw i8, ptr %5, i64 24
  %19 = load ptr, ptr %18, align 8
  tail call void @json_dumper_set_member_name(ptr noundef nonnull @dumper, ptr noundef nonnull @.str.378)
  tail call void @json_dumper_value_string(ptr noundef nonnull @dumper, ptr noundef %19)
  %20 = getelementptr inbounds nuw i8, ptr %5, i64 76
  %21 = load i32, ptr %20, align 4
  %22 = icmp eq i32 %21, 14
  br i1 %22, label %23, label %26

23:                                               ; preds = %6
  %24 = getelementptr inbounds nuw i8, ptr %5, i64 80
  %25 = load ptr, ptr %24, align 8
  %.not25 = icmp eq ptr %25, null
  br i1 %.not25, label %26, label %30

26:                                               ; preds = %23, %6
  %27 = zext i32 %21 to i64
  %28 = getelementptr [0 x ptr], ptr @voip_protocol_name, i64 0, i64 %27
  %29 = load ptr, ptr %28, align 8
  br label %30

30:                                               ; preds = %23, %26
  %31 = phi ptr [ %29, %26 ], [ %25, %23 ]
  tail call void @json_dumper_set_member_name(ptr noundef nonnull @dumper, ptr noundef nonnull @.str.379)
  tail call void @json_dumper_value_string(ptr noundef nonnull @dumper, ptr noundef %31)
  %32 = getelementptr inbounds nuw i8, ptr %5, i64 72
  %33 = load i32, ptr %32, align 8
  tail call void (ptr, ptr, ...) @sharkd_json_value_anyf(ptr noundef nonnull @.str.362, ptr noundef nonnull @.str.123, i32 noundef %33)
  %34 = load i32, ptr %5, align 8
  %35 = zext i32 %34 to i64
  %36 = getelementptr [8 x ptr], ptr @voip_call_state_name, i64 0, i64 %35
  %37 = load ptr, ptr %36, align 8
  tail call void @json_dumper_set_member_name(ptr noundef nonnull @dumper, ptr noundef nonnull @.str.380)
  tail call void @json_dumper_value_string(ptr noundef nonnull @dumper, ptr noundef %37)
  %38 = getelementptr inbounds nuw i8, ptr %5, i64 88
  %39 = load ptr, ptr %38, align 8
  tail call void @json_dumper_set_member_name(ptr noundef nonnull @dumper, ptr noundef nonnull @.str.82)
  tail call void @json_dumper_value_string(ptr noundef nonnull @dumper, ptr noundef %39)
  tail call void @json_dumper_end_object(ptr noundef nonnull @dumper)
  %40 = getelementptr inbounds nuw i8, ptr %.027, i64 8
  %41 = load ptr, ptr %40, align 8
  %.not = icmp eq ptr %41, null
  br i1 %.not, label %.critedge, label %.lr.ph, !llvm.loop !65

.critedge:                                        ; preds = %.lr.ph, %30, %1
  tail call void @json_dumper_end_array(ptr noundef nonnull @dumper)
  tail call void @json_dumper_end_object(ptr noundef nonnull @dumper)
  ret void
}